target datalayout = "e-m:e-p270:32:32-p271:32:32-p272:64:64-i64:64-i128:128-f80:128-n8:16:32:64-S128"
target triple = "x86_64-pc-linux-gnu"

%struct._object = type { %union.anon, ptr }
%union.anon = type { i64 }
%struct.PyVarObject = type { %struct._object, i64 }
%struct._typeobject = type { %struct.PyVarObject, ptr, i64, i64, ptr, i64, ptr, ptr, ptr, ptr, ptr, ptr, ptr, ptr, ptr, ptr, ptr, ptr, ptr, i64, ptr, ptr, ptr, ptr, i64, ptr, ptr, ptr, ptr, ptr, ptr, ptr, ptr, ptr, i64, ptr, ptr, ptr, ptr, ptr, ptr, ptr, ptr, ptr, ptr, ptr, i32, ptr, ptr, i8, i16 }
%struct.anon.4 = type { i32, i32 }
%struct.PyMemberDef = type { ptr, i32, i64, i32, ptr }

@PyExc_TypeError = external global ptr, align 8
@.str.31 = private unnamed_addr constant [48 x i8] c"type '%s' does not have Py_TPFLAGS_ITEMS_AT_END\00", align 1

; Function Attrs: inlinehint nounwind uwtable
define internal i32 @PyType_HasFeature(ptr noundef %0, i64 noundef %1) #2 {
  %3 = alloca ptr, align 8
  %4 = alloca i64, align 8
  %5 = alloca i64, align 8
  store ptr %0, ptr %3, align 8, !tbaa !9
  store i64 %1, ptr %4, align 8, !tbaa !11
  call void @llvm.lifetime.start.p0(i64 8, ptr %5) #11
  %6 = load ptr, ptr %3, align 8, !tbaa !9
  %7 = getelementptr inbounds nuw %struct._typeobject, ptr %6, i32 0, i32 19
  %8 = load i64, ptr %7, align 8, !tbaa !105
  store i64 %8, ptr %5, align 8, !tbaa !11
  %9 = load i64, ptr %5, align 8, !tbaa !11
  %10 = load i64, ptr %4, align 8, !tbaa !11
  %11 = and i64 %9, %10
  %12 = icmp ne i64 %11, 0
  %13 = zext i1 %12 to i32
  call void @llvm.lifetime.end.p0(i64 8, ptr %5) #11
  ret i32 %13
}

; Function Attrs: nounwind uwtable
define dso_local ptr @PyObject_GetItemData(ptr noundef %0) #0 {
  %2 = alloca ptr, align 8
  %3 = alloca ptr, align 8
  store ptr %0, ptr %3, align 8, !tbaa !97
  %4 = load ptr, ptr %3, align 8, !tbaa !97
  %5 = call ptr @_Py_TYPE(ptr noundef %4)
  %6 = call i32 @PyType_HasFeature(ptr noundef %5, i64 noundef 8388608)
  %7 = icmp ne i32 %6, 0
  br i1 %7, label %15, label %8

8:                                                ; preds = %1
  %9 = load ptr, ptr @PyExc_TypeError, align 8, !tbaa !97
  %10 = load ptr, ptr %3, align 8, !tbaa !97
  %11 = call ptr @_Py_TYPE(ptr noundef %10)
  %12 = getelementptr inbounds nuw %struct._typeobject, ptr %11, i32 0, i32 1
  %13 = load ptr, ptr %12, align 8, !tbaa !239
  %14 = call ptr (ptr, ptr, ...) @PyErr_Format(ptr noundef %9, ptr noundef @.str.31, ptr noundef %13)
  store ptr null, ptr %2, align 8
  br label %22

15:                                               ; preds = %1
  %16 = load ptr, ptr %3, align 8, !tbaa !97
  %17 = load ptr, ptr %3, align 8, !tbaa !97
  %18 = call ptr @_Py_TYPE(ptr noundef %17)
  %19 = getelementptr inbounds nuw %struct._typeobject, ptr %18, i32 0, i32 2
  %20 = load i64, ptr %19, align 8, !tbaa !245
  %21 = getelementptr i8, ptr %16, i64 %20
  store ptr %21, ptr %2, align 8
  br label %22

22:                                               ; preds = %15, %8
  %23 = load ptr, ptr %2, align 8
  ret ptr %23
}

; Function Attrs: alwaysinline nounwind uwtable
define internal i32 @_Py_IsImmortal(ptr noundef %0) #4 {
  %2 = alloca ptr, align 8
  store ptr %0, ptr %2, align 8, !tbaa !97
  %3 = load ptr, ptr %2, align 8, !tbaa !97
  %4 = getelementptr inbounds nuw %struct._object, ptr %3, i32 0, i32 0
  %5 = getelementptr inbounds nuw %struct.anon.4, ptr %4, i32 0, i32 0
  %6 = load i32, ptr %5, align 8, !tbaa !114
  %7 = icmp slt i32 %6, 0
  %8 = zext i1 %7 to i32
  ret i32 %8
}

; Function Attrs: inlinehint nounwind uwtable
define internal ptr @_PyHeapType_GET_MEMBERS(ptr noundef %0) #2 {
  %2 = alloca ptr, align 8
  store ptr %0, ptr %2, align 8, !tbaa !240
  %3 = load ptr, ptr %2, align 8, !tbaa !240
  %4 = call ptr @PyObject_GetItemData(ptr noundef %3)
  ret ptr %4
}

; Function Attrs: alwaysinline nounwind uwtable
define internal void @Py_DECREF(ptr noundef %0) #4 {
  %2 = alloca ptr, align 8
  store ptr %0, ptr %2, align 8, !tbaa !97
  %3 = load ptr, ptr %2, align 8, !tbaa !97
  %4 = call i32 @_Py_IsImmortal(ptr noundef %3)
  %5 = icmp ne i32 %4, 0
  br i1 %5, label %6, label %7

6:                                                ; preds = %1
  br label %16

7:                                                ; preds = %1
  %8 = load ptr, ptr %2, align 8, !tbaa !97
  %9 = getelementptr inbounds nuw %struct._object, ptr %8, i32 0, i32 0
  %10 = getelementptr inbounds nuw %struct.anon.4, ptr %9, i32 0, i32 0
  %11 = load i32, ptr %10, align 8, !tbaa !114
  %12 = add i32 %11, -1
  store i32 %12, ptr %10, align 8, !tbaa !114
  %13 = icmp eq i32 %12, 0
  br i1 %13, label %14, label %16

14:                                               ; preds = %7
  %15 = load ptr, ptr %2, align 8, !tbaa !97
  call void @_Py_Dealloc(ptr noundef %15)
  br label %16

16:                                               ; preds = %6, %14, %7
  ret void
}

; Function Attrs: nounwind uwtable
define internal void @clear_slots(ptr noundef %0, ptr noundef %1) #0 {
  %3 = alloca ptr, align 8
  %4 = alloca ptr, align 8
  %5 = alloca i64, align 8
  %6 = alloca i64, align 8
  %7 = alloca ptr, align 8
  %8 = alloca ptr, align 8
  %9 = alloca ptr, align 8
  store ptr %0, ptr %3, align 8, !tbaa !9
  store ptr %1, ptr %4, align 8, !tbaa !97
  call void @llvm.lifetime.start.p0(i64 8, ptr %5) #11
  call void @llvm.lifetime.start.p0(i64 8, ptr %6) #11
  call void @llvm.lifetime.start.p0(i64 8, ptr %7) #11
  %10 = load ptr, ptr %3, align 8, !tbaa !9
  %11 = call i64 @Py_SIZE(ptr noundef %10)
  store i64 %11, ptr %6, align 8, !tbaa !11
  %12 = load ptr, ptr %3, align 8, !tbaa !9
  %13 = call ptr @_PyHeapType_GET_MEMBERS(ptr noundef %12)
  store ptr %13, ptr %7, align 8, !tbaa !256
  store i64 0, ptr %5, align 8, !tbaa !11
  br label %14

14:                                               ; preds = %44, %2
  %15 = load i64, ptr %5, align 8, !tbaa !11
  %16 = load i64, ptr %6, align 8, !tbaa !11
  %17 = icmp slt i64 %15, %16
  br i1 %17, label %18, label %49

18:                                               ; preds = %14
  %19 = load ptr, ptr %7, align 8, !tbaa !256
  %20 = getelementptr inbounds nuw %struct.PyMemberDef, ptr %19, i32 0, i32 1
  %21 = load i32, ptr %20, align 8, !tbaa !301
  %22 = icmp eq i32 %21, 16
  br i1 %22, label %23, label %43

23:                                               ; preds = %18
  %24 = load ptr, ptr %7, align 8, !tbaa !256
  %25 = getelementptr inbounds nuw %struct.PyMemberDef, ptr %24, i32 0, i32 3
  %26 = load i32, ptr %25, align 8, !tbaa !264
  %27 = and i32 %26, 1
  %28 = icmp ne i32 %27, 0
  br i1 %28, label %43, label %29

29:                                               ; preds = %23
  call void @llvm.lifetime.start.p0(i64 8, ptr %8) #11
  %30 = load ptr, ptr %4, align 8, !tbaa !97
  %31 = load ptr, ptr %7, align 8, !tbaa !256
  %32 = getelementptr inbounds nuw %struct.PyMemberDef, ptr %31, i32 0, i32 2
  %33 = load i64, ptr %32, align 8, !tbaa !266
  %34 = getelementptr i8, ptr %30, i64 %33
  store ptr %34, ptr %8, align 8, !tbaa !123
  call void @llvm.lifetime.start.p0(i64 8, ptr %9) #11
  %35 = load ptr, ptr %8, align 8, !tbaa !123
  %36 = load ptr, ptr %35, align 8, !tbaa !97
  store ptr %36, ptr %9, align 8, !tbaa !97
  %37 = load ptr, ptr %9, align 8, !tbaa !97
  %38 = icmp ne ptr %37, null
  br i1 %38, label %39, label %42

39:                                               ; preds = %29
  %40 = load ptr, ptr %8, align 8, !tbaa !123
  store ptr null, ptr %40, align 8, !tbaa !97
  %41 = load ptr, ptr %9, align 8, !tbaa !97
  call void @Py_DECREF(ptr noundef %41)
  br label %42

42:                                               ; preds = %39, %29
  call void @llvm.lifetime.end.p0(i64 8, ptr %9) #11
  call void @llvm.lifetime.end.p0(i64 8, ptr %8) #11
  br label %43

43:                                               ; preds = %42, %23, %18
  br label %44

44:                                               ; preds = %43
  %45 = load i64, ptr %5, align 8, !tbaa !11
  %46 = add i64 %45, 1
  store i64 %46, ptr %5, align 8, !tbaa !11
  %47 = load ptr, ptr %7, align 8, !tbaa !256
  %48 = getelementptr %struct.PyMemberDef, ptr %47, i32 1
  store ptr %48, ptr %7, align 8, !tbaa !256
  br label %14, !llvm.loop !377

49:                                               ; preds = %14
  call void @llvm.lifetime.end.p0(i64 8, ptr %7) #11
  call void @llvm.lifetime.end.p0(i64 8, ptr %6) #11
  call void @llvm.lifetime.end.p0(i64 8, ptr %5) #11
  ret void
}

; Function Attrs: inlinehint nounwind uwtable
define internal i64 @Py_SIZE(ptr noundef %0) #2 {
  %2 = alloca ptr, align 8
  store ptr %0, ptr %2, align 8, !tbaa !97
  %3 = load ptr, ptr %2, align 8, !tbaa !97
  %4 = getelementptr inbounds nuw %struct.PyVarObject, ptr %3, i32 0, i32 1
  %5 = load i64, ptr %4, align 8, !tbaa !375
  ret i64 %5
}

; Function Attrs: inlinehint nounwind uwtable
define internal ptr @_Py_TYPE(ptr noundef %0) #2 {
  %2 = alloca ptr, align 8
  store ptr %0, ptr %2, align 8, !tbaa !97
  %3 = load ptr, ptr %2, align 8, !tbaa !97
  %4 = getelementptr inbounds nuw %struct._object, ptr %3, i32 0, i32 1
  %5 = load ptr, ptr %4, align 8, !tbaa !243
  ret ptr %5
}

; Function Attrs: nounwind uwtable
define internal i32 @subtype_clear(ptr noundef %0) #0 {
  %2 = alloca i32, align 4
  %3 = alloca ptr, align 8
  %4 = alloca ptr, align 8
  %5 = alloca ptr, align 8
  %6 = alloca ptr, align 8
  %7 = alloca ptr, align 8
  %8 = alloca ptr, align 8
  %9 = alloca ptr, align 8
  %10 = alloca i32, align 4
  store ptr %0, ptr %3, align 8, !tbaa !97
  call void @llvm.lifetime.start.p0(i64 8, ptr %4) #11
  call void @llvm.lifetime.start.p0(i64 8, ptr %5) #11
  call void @llvm.lifetime.start.p0(i64 8, ptr %6) #11
  %11 = load ptr, ptr %3, align 8, !tbaa !97
  %12 = call ptr @_Py_TYPE(ptr noundef %11)
  store ptr %12, ptr %4, align 8, !tbaa !9
  %13 = load ptr, ptr %4, align 8, !tbaa !9
  store ptr %13, ptr %5, align 8, !tbaa !9
  br label %14

14:                                               ; preds = %26, %1
  %15 = load ptr, ptr %5, align 8, !tbaa !9
  %16 = getelementptr inbounds nuw %struct._typeobject, ptr %15, i32 0, i32 22
  %17 = load ptr, ptr %16, align 8, !tbaa !441
  store ptr %17, ptr %6, align 8, !tbaa !13
  %18 = icmp eq ptr %17, @subtype_clear
  br i1 %18, label %19, label %30

19:                                               ; preds = %14
  %20 = load ptr, ptr %5, align 8, !tbaa !9
  %21 = call i64 @Py_SIZE(ptr noundef %20)
  %22 = icmp ne i64 %21, 0
  br i1 %22, label %23, label %26

23:                                               ; preds = %19
  %24 = load ptr, ptr %5, align 8, !tbaa !9
  %25 = load ptr, ptr %3, align 8, !tbaa !97
  call void @clear_slots(ptr noundef %24, ptr noundef %25)
  br label %26

26:                                               ; preds = %23, %19
  %27 = load ptr, ptr %5, align 8, !tbaa !9
  %28 = getelementptr inbounds nuw %struct._typeobject, ptr %27, i32 0, i32 30
  %29 = load ptr, ptr %28, align 8, !tbaa !278
  store ptr %29, ptr %5, align 8, !tbaa !9
  br label %14, !llvm.loop !446

30:                                               ; preds = %14
  %31 = load ptr, ptr %4, align 8, !tbaa !9
  %32 = getelementptr inbounds nuw %struct._typeobject, ptr %31, i32 0, i32 19
  %33 = load i64, ptr %32, align 8, !tbaa !105
  %34 = and i64 %33, 16
  %35 = icmp ne i64 %34, 0
  br i1 %35, label %36, label %46

36:                                               ; preds = %30
  %37 = load ptr, ptr %5, align 8, !tbaa !9
  %38 = getelementptr inbounds nuw %struct._typeobject, ptr %37, i32 0, i32 19
  %39 = load i64, ptr %38, align 8, !tbaa !105
  %40 = and i64 %39, 16
  %41 = icmp eq i64 %40, 0
  br i1 %41, label %42, label %44

42:                                               ; preds = %36
  %43 = load ptr, ptr %3, align 8, !tbaa !97
  call void @PyObject_ClearManagedDict(ptr noundef %43)
  br label %45

44:                                               ; preds = %36
  br label %45

45:                                               ; preds = %44, %42
  br label %78

46:                                               ; preds = %30
  %47 = load ptr, ptr %4, align 8, !tbaa !9
  %48 = getelementptr inbounds nuw %struct._typeobject, ptr %47, i32 0, i32 34
  %49 = load i64, ptr %48, align 8, !tbaa !293
  %50 = load ptr, ptr %5, align 8, !tbaa !9
  %51 = getelementptr inbounds nuw %struct._typeobject, ptr %50, i32 0, i32 34
  %52 = load i64, ptr %51, align 8, !tbaa !293
  %53 = icmp ne i64 %49, %52
  br i1 %53, label %54, label %77

54:                                               ; preds = %46
  call void @llvm.lifetime.start.p0(i64 8, ptr %7) #11
  %55 = load ptr, ptr %3, align 8, !tbaa !97
  %56 = call ptr @_PyObject_ComputedDictPointer(ptr noundef %55)
  store ptr %56, ptr %7, align 8, !tbaa !137
  %57 = load ptr, ptr %7, align 8, !tbaa !137
  %58 = icmp ne ptr %57, null
  br i1 %58, label %59, label %76

59:                                               ; preds = %54
  %60 = load ptr, ptr %7, align 8, !tbaa !137
  %61 = load ptr, ptr %60, align 8, !tbaa !97
  %62 = icmp ne ptr %61, null
  br i1 %62, label %63, label %76

63:                                               ; preds = %59
  br label %64

64:                                               ; preds = %63
  call void @llvm.lifetime.start.p0(i64 8, ptr %8) #11
  %65 = load ptr, ptr %7, align 8, !tbaa !137
  store ptr %65, ptr %8, align 8, !tbaa !137
  call void @llvm.lifetime.start.p0(i64 8, ptr %9) #11
  %66 = load ptr, ptr %8, align 8, !tbaa !137
  %67 = load ptr, ptr %66, align 8, !tbaa !97
  store ptr %67, ptr %9, align 8, !tbaa !97
  %68 = load ptr, ptr %9, align 8, !tbaa !97
  %69 = icmp ne ptr %68, null
  br i1 %69, label %70, label %73

70:                                               ; preds = %64
  %71 = load ptr, ptr %8, align 8, !tbaa !137
  store ptr null, ptr %71, align 8, !tbaa !97
  %72 = load ptr, ptr %9, align 8, !tbaa !97
  call void @Py_DECREF(ptr noundef %72)
  br label %73

73:                                               ; preds = %70, %64
  call void @llvm.lifetime.end.p0(i64 8, ptr %9) #11
  call void @llvm.lifetime.end.p0(i64 8, ptr %8) #11
  br label %74

74:                                               ; preds = %73
  br label %75

75:                                               ; preds = %74
  br label %76

76:                                               ; preds = %75, %59, %54
  call void @llvm.lifetime.end.p0(i64 8, ptr %7) #11
  br label %77

77:                                               ; preds = %76, %46
  br label %78

78:                                               ; preds = %77, %45
  %79 = load ptr, ptr %6, align 8, !tbaa !13
  %80 = icmp ne ptr %79, null
  br i1 %80, label %81, label %85

81:                                               ; preds = %78
  %82 = load ptr, ptr %6, align 8, !tbaa !13
  %83 = load ptr, ptr %3, align 8, !tbaa !97
  %84 = call i32 %82(ptr noundef %83)
  store i32 %84, ptr %2, align 4
  store i32 1, ptr %10, align 4
  br label %86

85:                                               ; preds = %78
  store i32 0, ptr %2, align 4
  store i32 1, ptr %10, align 4
  br label %86

86:                                               ; preds = %85, %81
  call void @llvm.lifetime.end.p0(i64 8, ptr %6) #11
  call void @llvm.lifetime.end.p0(i64 8, ptr %5) #11
  call void @llvm.lifetime.end.p0(i64 8, ptr %4) #11
  %87 = load i32, ptr %2, align 4
  ret i32 %87
}