; Function Attrs: nounwind uwtable
define internal i32 @subtype_clear(ptr noundef %0) #1 {
  %2 = getelementptr i8, ptr %0, i64 8
  %.val = load ptr, ptr %2, align 8, !tbaa !116
  %3 = getelementptr inbounds nuw i8, ptr %.val, i64 192
  %4 = load ptr, ptr %3, align 8, !tbaa !333
  %5 = icmp eq ptr %4, @subtype_clear
  br i1 %5, label %.lr.ph, label %._crit_edge

.lr.ph:                                           ; preds = %1, %clear_slots.exit
  %.02333 = phi ptr [ %42, %clear_slots.exit ], [ %.val, %1 ]
  %6 = getelementptr i8, ptr %.02333, i64 16
  %.023.val = load i64, ptr %6, align 8, !tbaa !132
  %.not31 = icmp eq i64 %.023.val, 0
  br i1 %.not31, label %clear_slots.exit, label %7

7:                                                ; preds = %.lr.ph
  %8 = getelementptr i8, ptr %.02333, i64 8
  %.val6.i.i.i = load ptr, ptr %8, align 8, !tbaa !116
  %9 = getelementptr i8, ptr %.val6.i.i.i, i64 168
  %.val7.i.i.i = load i64, ptr %9, align 8, !tbaa !108
  %10 = and i64 %.val7.i.i.i, 8388608
  %.not.i.i.i = icmp eq i64 %10, 0
  br i1 %.not.i.i.i, label %11, label %16

11:                                               ; preds = %7
  %12 = load ptr, ptr @PyExc_TypeError, align 8, !tbaa !105
  %13 = getelementptr inbounds nuw i8, ptr %.val6.i.i.i, i64 24
  %14 = load ptr, ptr %13, align 8, !tbaa !227
  %15 = tail call ptr (ptr, ptr, ...) @PyErr_Format(ptr noundef %12, ptr noundef nonnull @.str.31, ptr noundef %14) #24
  br label %_PyHeapType_GET_MEMBERS.exit.i

16:                                               ; preds = %7
  %17 = getelementptr inbounds nuw i8, ptr %.val6.i.i.i, i64 32
  %18 = load i64, ptr %17, align 8, !tbaa !232
  %19 = getelementptr i8, ptr %.02333, i64 %18
  br label %_PyHeapType_GET_MEMBERS.exit.i

_PyHeapType_GET_MEMBERS.exit.i:                   ; preds = %16, %11
  %.0.i.i.i = phi ptr [ %19, %16 ], [ null, %11 ]
  %20 = icmp sgt i64 %.023.val, 0
  br i1 %20, label %.lr.ph.i, label %clear_slots.exit

.lr.ph.i:                                         ; preds = %_PyHeapType_GET_MEMBERS.exit.i, %Py_DECREF.exit.i
  %.017.i = phi i64 [ %39, %Py_DECREF.exit.i ], [ 0, %_PyHeapType_GET_MEMBERS.exit.i ]
  %.01316.i = phi ptr [ %40, %Py_DECREF.exit.i ], [ %.0.i.i.i, %_PyHeapType_GET_MEMBERS.exit.i ]
  %21 = getelementptr inbounds nuw i8, ptr %.01316.i, i64 8
  %22 = load i32, ptr %21, align 8, !tbaa !277
  %23 = icmp eq i32 %22, 16
  br i1 %23, label %24, label %Py_DECREF.exit.i

24:                                               ; preds = %.lr.ph.i
  %25 = getelementptr inbounds nuw i8, ptr %.01316.i, i64 24
  %26 = load i32, ptr %25, align 8, !tbaa !249
  %27 = and i32 %26, 1
  %.not.i32 = icmp eq i32 %27, 0
  br i1 %.not.i32, label %28, label %Py_DECREF.exit.i

28:                                               ; preds = %24
  %29 = getelementptr inbounds nuw i8, ptr %.01316.i, i64 16
  %30 = load i64, ptr %29, align 8, !tbaa !251
  %31 = getelementptr i8, ptr %0, i64 %30
  %32 = load ptr, ptr %31, align 8, !tbaa !105
  %.not15.i = icmp eq ptr %32, null
  br i1 %.not15.i, label %Py_DECREF.exit.i, label %33

33:                                               ; preds = %28
  store ptr null, ptr %31, align 8, !tbaa !105
  %34 = load i32, ptr %32, align 8, !tbaa !102
  %.not.i.i = icmp sgt i32 %34, -1
  br i1 %.not.i.i, label %35, label %Py_DECREF.exit.i

35:                                               ; preds = %33
  %36 = add nsw i32 %34, -1
  store i32 %36, ptr %32, align 8, !tbaa !102
  %37 = icmp eq i32 %36, 0
  br i1 %37, label %38, label %Py_DECREF.exit.i

38:                                               ; preds = %35
  tail call void @_Py_Dealloc(ptr noundef nonnull %32) #24
  br label %Py_DECREF.exit.i

Py_DECREF.exit.i:                                 ; preds = %38, %35, %33, %28, %24, %.lr.ph.i
  %39 = add nuw nsw i64 %.017.i, 1
  %40 = getelementptr i8, ptr %.01316.i, i64 40
  %exitcond.not.i = icmp eq i64 %39, %.023.val
  br i1 %exitcond.not.i, label %clear_slots.exit, label %.lr.ph.i, !llvm.loop !283

clear_slots.exit:                                 ; preds = %Py_DECREF.exit.i, %_PyHeapType_GET_MEMBERS.exit.i, %.lr.ph
  %41 = getelementptr inbounds nuw i8, ptr %.02333, i64 256
  %42 = load ptr, ptr %41, align 8, !tbaa !237
  %43 = getelementptr inbounds nuw i8, ptr %42, i64 192
  %44 = load ptr, ptr %43, align 8, !tbaa !333
  %45 = icmp eq ptr %44, @subtype_clear
  br i1 %45, label %.lr.ph, label %._crit_edge, !llvm.loop !470

._crit_edge:                                      ; preds = %clear_slots.exit, %1
  %.023.lcssa = phi ptr [ %.val, %1 ], [ %42, %clear_slots.exit ]
  %.lcssa = phi ptr [ %4, %1 ], [ %44, %clear_slots.exit ]
  %46 = getelementptr inbounds nuw i8, ptr %.val, i64 168
  %47 = load i64, ptr %46, align 8, !tbaa !108
  %48 = and i64 %47, 16
  %.not = icmp eq i64 %48, 0
  br i1 %.not, label %55, label %49

49:                                               ; preds = %._crit_edge
  %50 = getelementptr inbounds nuw i8, ptr %.023.lcssa, i64 168
  %51 = load i64, ptr %50, align 8, !tbaa !108
  %52 = and i64 %51, 16
  %53 = icmp eq i64 %52, 0
  br i1 %53, label %54, label %Py_DECREF.exit

54:                                               ; preds = %49
  tail call void @PyObject_ClearManagedDict(ptr noundef %0) #24
  br label %Py_DECREF.exit

55:                                               ; preds = %._crit_edge
  %56 = getelementptr inbounds nuw i8, ptr %.val, i64 288
  %57 = load i64, ptr %56, align 8, !tbaa !275
  %58 = getelementptr inbounds nuw i8, ptr %.023.lcssa, i64 288
  %59 = load i64, ptr %58, align 8, !tbaa !275
  %.not27 = icmp eq i64 %57, %59
  br i1 %.not27, label %Py_DECREF.exit, label %60

60:                                               ; preds = %55
  %61 = tail call ptr @_PyObject_ComputedDictPointer(ptr noundef %0) #24
  %.not28 = icmp eq ptr %61, null
  br i1 %.not28, label %Py_DECREF.exit, label %62

62:                                               ; preds = %60
  %63 = load ptr, ptr %61, align 8, !tbaa !105
  %.not29 = icmp eq ptr %63, null
  br i1 %.not29, label %Py_DECREF.exit, label %64

64:                                               ; preds = %62
  store ptr null, ptr %61, align 8, !tbaa !105
  %65 = load i32, ptr %63, align 8, !tbaa !102
  %.not.i = icmp sgt i32 %65, -1
  br i1 %.not.i, label %66, label %Py_DECREF.exit

66:                                               ; preds = %64
  %67 = add nsw i32 %65, -1
  store i32 %67, ptr %63, align 8, !tbaa !102
  %68 = icmp eq i32 %67, 0
  br i1 %68, label %69, label %Py_DECREF.exit

69:                                               ; preds = %66
  tail call void @_Py_Dealloc(ptr noundef nonnull %63) #24
  br label %Py_DECREF.exit

Py_DECREF.exit:                                   ; preds = %69, %66, %64, %60, %62, %55, %54, %49
  %.not30 = icmp eq ptr %.lcssa, null
  br i1 %.not30, label %72, label %70

70:                                               ; preds = %Py_DECREF.exit
  %71 = tail call i32 %.lcssa(ptr noundef %0) #24
  br label %72

72:                                               ; preds = %Py_DECREF.exit, %70
  %.0 = phi i32 [ %71, %70 ], [ 0, %Py_DECREF.exit ]
  ret i32 %.0
}